target datalayout = "e-m:e-p270:32:32-p271:32:32-p272:64:64-i64:64-i128:128-f80:128-n8:16:32:64-S128"
target triple = "x86_64-unknown-linux-gnu"

%"class.QuantLib::Date" = type { i64 }

; Function Attrs: mustprogress uwtable
define noundef double @_ZNK8QuantLib4Bond10dirtyPriceEdRKNS_10DayCounterENS_11CompoundingENS_9FrequencyENS_4DateE(ptr noundef nonnull align 8 dereferenceable(248) %this, double noundef %y, ptr noundef nonnull align 8 dereferenceable(16) %dc, i32 noundef %comp, i32 noundef %freq, i64 %settlement.coerce) #2 align 2 {
entry:
  %retval = alloca double, align 8
  %settlement = alloca %"class.QuantLib::Date", align 8
  %this.addr = alloca ptr, align 8
  %y.addr = alloca double, align 8
  %dc.addr = alloca ptr, align 8
  %comp.addr = alloca i32, align 4
  %freq.addr = alloca i32, align 4
  %currentNotional = alloca double, align 8
  %agg.tmp = alloca %"class.QuantLib::Date", align 8
  %cleanup.dest.slot = alloca i32, align 4
  %agg.tmp3 = alloca %"class.QuantLib::Date", align 8
  %agg.tmp6 = alloca %"class.QuantLib::Date", align 8
  %coerce.dive = getelementptr inbounds nuw %"class.QuantLib::Date", ptr %settlement, i32 0, i32 0
  store i64 %settlement.coerce, ptr %coerce.dive, align 8
  store ptr %this, ptr %this.addr, align 8, !tbaa !3
  store double %y, ptr %y.addr, align 8, !tbaa !62
  store ptr %dc, ptr %dc.addr, align 8, !tbaa !3
  store i32 %comp, ptr %comp.addr, align 4, !tbaa !77
  store i32 %freq, ptr %freq.addr, align 4, !tbaa !79
  %this1 = load ptr, ptr %this.addr, align 8
  call void @llvm.lifetime.start.p0(i64 8, ptr %currentNotional) #17
  call void @llvm.memcpy.p0.p0.i64(ptr align 8 %agg.tmp, ptr align 8 %settlement, i64 8, i1 false), !tbaa.struct !55
  %coerce.dive2 = getelementptr inbounds nuw %"class.QuantLib::Date", ptr %agg.tmp, i32 0, i32 0
  %0 = load i64, ptr %coerce.dive2, align 8
  %vtable = load ptr, ptr %this1, align 8, !tbaa !20
  %vfn = getelementptr inbounds ptr, ptr %vtable, i64 10
  %1 = load ptr, ptr %vfn, align 8
  %call = call noundef double %1(ptr noundef nonnull align 8 dereferenceable(248) %this1, i64 %0)
  store double %call, ptr %currentNotional, align 8, !tbaa !62
  %2 = load double, ptr %currentNotional, align 8, !tbaa !62
  %cmp = fcmp oeq double %2, 0.000000e+00
  br i1 %cmp, label %if.then, label %if.end

if.then:                                          ; preds = %entry
  store double 0.000000e+00, ptr %retval, align 8
  store i32 1, ptr %cleanup.dest.slot, align 4
  br label %cleanup

if.end:                                           ; preds = %entry
  %3 = load double, ptr %y.addr, align 8, !tbaa !62
  %4 = load ptr, ptr %dc.addr, align 8, !tbaa !3
  %5 = load i32, ptr %comp.addr, align 4, !tbaa !77
  %6 = load i32, ptr %freq.addr, align 4, !tbaa !79
  call void @llvm.memcpy.p0.p0.i64(ptr align 8 %agg.tmp3, ptr align 8 %settlement, i64 8, i1 false), !tbaa.struct !55
  %coerce.dive4 = getelementptr inbounds nuw %"class.QuantLib::Date", ptr %agg.tmp3, i32 0, i32 0
  %7 = load i64, ptr %coerce.dive4, align 8
  %call5 = call noundef double @_ZN8QuantLib13BondFunctions10cleanPriceERKNS_4BondEdRKNS_10DayCounterENS_11CompoundingENS_9FrequencyENS_4DateE(ptr noundef nonnull align 8 dereferenceable(248) %this1, double noundef %3, ptr noundef nonnull align 8 dereferenceable(16) %4, i32 noundef %5, i32 noundef %6, i64 %7)
  call void @llvm.memcpy.p0.p0.i64(ptr align 8 %agg.tmp6, ptr align 8 %settlement, i64 8, i1 false), !tbaa.struct !55
  %coerce.dive7 = getelementptr inbounds nuw %"class.QuantLib::Date", ptr %agg.tmp6, i32 0, i32 0
  %8 = load i64, ptr %coerce.dive7, align 8
  %vtable8 = load ptr, ptr %this1, align 8, !tbaa !20
  %vfn9 = getelementptr inbounds ptr, ptr %vtable8, i64 11
  %9 = load ptr, ptr %vfn9, align 8
  %call10 = call noundef double %9(ptr noundef nonnull align 8 dereferenceable(248) %this1, i64 %8)
  %add = fadd double %call5, %call10
  store double %add, ptr %retval, align 8
  store i32 1, ptr %cleanup.dest.slot, align 4
  br label %cleanup

cleanup:                                          ; preds = %if.end, %if.then
  call void @llvm.lifetime.end.p0(i64 8, ptr %currentNotional) #17
  %10 = load double, ptr %retval, align 8
  ret double %10
}