; Function Attrs: mustprogress uwtable
define noundef double @_ZNK8QuantLib4Bond10dirtyPriceEdRKNS_10DayCounterENS_11CompoundingENS_9FrequencyENS_4DateE(ptr noundef nonnull align 8 dereferenceable(248) %this, double noundef %y, ptr noundef nonnull align 8 dereferenceable(16) %dc, i32 noundef %comp, i32 noundef %freq, i64 %settlement.coerce) local_unnamed_addr #9 align 2 {
entry:
  %vtable = load ptr, ptr %this, align 8, !tbaa !33
  %vfn = getelementptr inbounds i8, ptr %vtable, i64 80
  %0 = load ptr, ptr %vfn, align 8
  %call = tail call noundef double %0(ptr noundef nonnull align 8 dereferenceable(248) %this, i64 %settlement.coerce)
  %cmp = fcmp oeq double %call, 0.000000e+00
  br i1 %cmp, label %cleanup, label %if.end

if.end:                                           ; preds = %entry
  %call5 = tail call noundef double @_ZN8QuantLib13BondFunctions10cleanPriceERKNS_4BondEdRKNS_10DayCounterENS_11CompoundingENS_9FrequencyENS_4DateE(ptr noundef nonnull align 8 dereferenceable(248) %this, double noundef %y, ptr noundef nonnull align 8 dereferenceable(16) %dc, i32 noundef %comp, i32 noundef %freq, i64 %settlement.coerce)
  %vtable8 = load ptr, ptr %this, align 8, !tbaa !33
  %vfn9 = getelementptr inbounds i8, ptr %vtable8, i64 88
  %1 = load ptr, ptr %vfn9, align 8
  %call10 = tail call noundef double %1(ptr noundef nonnull align 8 dereferenceable(248) %this, i64 %settlement.coerce)
  %add = fadd double %call5, %call10
  br label %cleanup

cleanup:                                          ; preds = %entry, %if.end
  %retval.0 = phi double [ %add, %if.end ], [ 0.000000e+00, %entry ]
  ret double %retval.0
}